target datalayout = "e-m:e-p270:32:32-p271:32:32-p272:64:64-i64:64-i128:128-f80:128-n8:16:32:64-S128"
target triple = "x86_64-pc-linux-gnu"

%struct.GENERAL_SUBTREE_st = type { ptr, ptr, ptr }
%struct.GENERAL_NAME_st = type { i32, %union.anon }
%union.anon = type { ptr }
%struct.asn1_string_st = type { i32, i32, ptr, i64 }

@.str.2 = private unnamed_addr constant [34 x i8] c"../openssl/crypto/x509/v3_ncons.c\00", align 1
@.str.11 = private unnamed_addr constant [2 x i8] c"\0A\00", align 1
@.str.13 = private unnamed_addr constant [8 x i8] c"%*s%s:\0A\00", align 1
@.str.14 = private unnamed_addr constant [1 x i8] zeroinitializer, align 1
@.str.15 = private unnamed_addr constant [4 x i8] c"%*s\00", align 1
@.str.16 = private unnamed_addr constant [9 x i8] c"IP:%s/%s\00", align 1

; Function Attrs: nounwind uwtable
define internal i32 @print_nc_ipadd(ptr noundef %0, ptr noundef %1) #0 {
  %3 = alloca ptr, align 8
  %4 = alloca ptr, align 8
  %5 = alloca i32, align 4
  %6 = alloca i32, align 4
  %7 = alloca ptr, align 8
  %8 = alloca ptr, align 8
  %9 = alloca i32, align 4
  store ptr %0, ptr %3, align 8, !tbaa !34
  store ptr %1, ptr %4, align 8, !tbaa !82
  call void @llvm.lifetime.start.p0(i64 4, ptr %5) #6
  %10 = load ptr, ptr %4, align 8, !tbaa !82
  %11 = getelementptr inbounds nuw %struct.asn1_string_st, ptr %10, i32 0, i32 0
  %12 = load i32, ptr %11, align 8, !tbaa !84
  %13 = icmp sge i32 %12, 16
  br i1 %13, label %14, label %15

14:                                               ; preds = %2
  br label %27

15:                                               ; preds = %2
  %16 = load ptr, ptr %4, align 8, !tbaa !82
  %17 = getelementptr inbounds nuw %struct.asn1_string_st, ptr %16, i32 0, i32 0
  %18 = load i32, ptr %17, align 8, !tbaa !84
  %19 = icmp sge i32 %18, 4
  br i1 %19, label %20, label %21

20:                                               ; preds = %15
  br label %25

21:                                               ; preds = %15
  %22 = load ptr, ptr %4, align 8, !tbaa !82
  %23 = getelementptr inbounds nuw %struct.asn1_string_st, ptr %22, i32 0, i32 0
  %24 = load i32, ptr %23, align 8, !tbaa !84
  br label %25

25:                                               ; preds = %21, %20
  %26 = phi i32 [ 4, %20 ], [ %24, %21 ]
  br label %27

27:                                               ; preds = %25, %14
  %28 = phi i32 [ 16, %14 ], [ %26, %25 ]
  store i32 %28, ptr %5, align 4, !tbaa !18
  call void @llvm.lifetime.start.p0(i64 4, ptr %6) #6
  %29 = load ptr, ptr %4, align 8, !tbaa !82
  %30 = getelementptr inbounds nuw %struct.asn1_string_st, ptr %29, i32 0, i32 0
  %31 = load i32, ptr %30, align 8, !tbaa !84
  %32 = load i32, ptr %5, align 4, !tbaa !18
  %33 = sub nsw i32 %31, %32
  store i32 %33, ptr %6, align 4, !tbaa !18
  call void @llvm.lifetime.start.p0(i64 8, ptr %7) #6
  %34 = load ptr, ptr %4, align 8, !tbaa !82
  %35 = getelementptr inbounds nuw %struct.asn1_string_st, ptr %34, i32 0, i32 2
  %36 = load ptr, ptr %35, align 8, !tbaa !86
  %37 = load i32, ptr %5, align 4, !tbaa !18
  %38 = call ptr @ossl_ipaddr_to_asc(ptr noundef %36, i32 noundef %37)
  store ptr %38, ptr %7, align 8, !tbaa !85
  call void @llvm.lifetime.start.p0(i64 8, ptr %8) #6
  %39 = load ptr, ptr %4, align 8, !tbaa !82
  %40 = getelementptr inbounds nuw %struct.asn1_string_st, ptr %39, i32 0, i32 2
  %41 = load ptr, ptr %40, align 8, !tbaa !86
  %42 = load i32, ptr %5, align 4, !tbaa !18
  %43 = sext i32 %42 to i64
  %44 = getelementptr inbounds i8, ptr %41, i64 %43
  %45 = load i32, ptr %6, align 4, !tbaa !18
  %46 = call ptr @ossl_ipaddr_to_asc(ptr noundef %44, i32 noundef %45)
  store ptr %46, ptr %8, align 8, !tbaa !85
  call void @llvm.lifetime.start.p0(i64 4, ptr %9) #6
  %47 = load ptr, ptr %7, align 8, !tbaa !85
  %48 = icmp ne ptr %47, null
  br i1 %48, label %49, label %58

49:                                               ; preds = %27
  %50 = load ptr, ptr %8, align 8, !tbaa !85
  %51 = icmp ne ptr %50, null
  br i1 %51, label %52, label %58

52:                                               ; preds = %49
  %53 = load ptr, ptr %3, align 8, !tbaa !34
  %54 = load ptr, ptr %7, align 8, !tbaa !85
  %55 = load ptr, ptr %8, align 8, !tbaa !85
  %56 = call i32 (ptr, ptr, ...) @BIO_printf(ptr noundef %53, ptr noundef @.str.16, ptr noundef %54, ptr noundef %55)
  %57 = icmp sgt i32 %56, 0
  br label %58

58:                                               ; preds = %52, %49, %27
  %59 = phi i1 [ false, %49 ], [ false, %27 ], [ %57, %52 ]
  %60 = zext i1 %59 to i32
  store i32 %60, ptr %9, align 4, !tbaa !18
  %61 = load ptr, ptr %7, align 8, !tbaa !85
  call void @CRYPTO_free(ptr noundef %61, ptr noundef @.str.2, i32 noundef 246)
  %62 = load ptr, ptr %8, align 8, !tbaa !85
  call void @CRYPTO_free(ptr noundef %62, ptr noundef @.str.2, i32 noundef 247)
  %63 = load i32, ptr %9, align 4, !tbaa !18
  call void @llvm.lifetime.end.p0(i64 4, ptr %9) #6
  call void @llvm.lifetime.end.p0(i64 8, ptr %8) #6
  call void @llvm.lifetime.end.p0(i64 8, ptr %7) #6
  call void @llvm.lifetime.end.p0(i64 4, ptr %6) #6
  call void @llvm.lifetime.end.p0(i64 4, ptr %5) #6
  ret i32 %63
}

; Function Attrs: inlinehint nounwind uwtable
define internal ptr @ossl_check_const_GENERAL_SUBTREE_sk_type(ptr noundef %0) #3 {
  %2 = alloca ptr, align 8
  store ptr %0, ptr %2, align 8, !tbaa !30
  %3 = load ptr, ptr %2, align 8, !tbaa !30
  ret ptr %3
}

; Function Attrs: nounwind uwtable
define internal i32 @do_i2r_name_constraints(ptr noundef %0, ptr noundef %1, ptr noundef %2, i32 noundef %3, ptr noundef %4) #0 {
  %6 = alloca ptr, align 8
  %7 = alloca ptr, align 8
  %8 = alloca ptr, align 8
  %9 = alloca i32, align 4
  %10 = alloca ptr, align 8
  %11 = alloca ptr, align 8
  %12 = alloca i32, align 4
  store ptr %0, ptr %6, align 8, !tbaa !3
  store ptr %1, ptr %7, align 8, !tbaa !30
  store ptr %2, ptr %8, align 8, !tbaa !34
  store i32 %3, ptr %9, align 4, !tbaa !18
  store ptr %4, ptr %10, align 8, !tbaa !85
  call void @llvm.lifetime.start.p0(i64 8, ptr %11) #6
  call void @llvm.lifetime.start.p0(i64 4, ptr %12) #6
  %13 = load ptr, ptr %7, align 8, !tbaa !30
  %14 = call ptr @ossl_check_const_GENERAL_SUBTREE_sk_type(ptr noundef %13)
  %15 = call i32 @OPENSSL_sk_num(ptr noundef %14)
  %16 = icmp sgt i32 %15, 0
  br i1 %16, label %17, label %22

17:                                               ; preds = %5
  %18 = load ptr, ptr %8, align 8, !tbaa !34
  %19 = load i32, ptr %9, align 4, !tbaa !18
  %20 = load ptr, ptr %10, align 8, !tbaa !85
  %21 = call i32 (ptr, ptr, ...) @BIO_printf(ptr noundef %18, ptr noundef @.str.13, i32 noundef %19, ptr noundef @.str.14, ptr noundef %20)
  br label %22

22:                                               ; preds = %17, %5
  store i32 0, ptr %12, align 4, !tbaa !18
  br label %23

23:                                               ; preds = %65, %22
  %24 = load i32, ptr %12, align 4, !tbaa !18
  %25 = load ptr, ptr %7, align 8, !tbaa !30
  %26 = call ptr @ossl_check_const_GENERAL_SUBTREE_sk_type(ptr noundef %25)
  %27 = call i32 @OPENSSL_sk_num(ptr noundef %26)
  %28 = icmp slt i32 %24, %27
  br i1 %28, label %29, label %68

29:                                               ; preds = %23
  %30 = load i32, ptr %12, align 4, !tbaa !18
  %31 = icmp sgt i32 %30, 0
  br i1 %31, label %32, label %35

32:                                               ; preds = %29
  %33 = load ptr, ptr %8, align 8, !tbaa !34
  %34 = call i32 @BIO_puts(ptr noundef %33, ptr noundef @.str.11)
  br label %35

35:                                               ; preds = %32, %29
  %36 = load ptr, ptr %7, align 8, !tbaa !30
  %37 = call ptr @ossl_check_const_GENERAL_SUBTREE_sk_type(ptr noundef %36)
  %38 = load i32, ptr %12, align 4, !tbaa !18
  %39 = call ptr @OPENSSL_sk_value(ptr noundef %37, i32 noundef %38)
  store ptr %39, ptr %11, align 8, !tbaa !16
  %40 = load ptr, ptr %8, align 8, !tbaa !34
  %41 = load i32, ptr %9, align 4, !tbaa !18
  %42 = add nsw i32 %41, 2
  %43 = call i32 (ptr, ptr, ...) @BIO_printf(ptr noundef %40, ptr noundef @.str.15, i32 noundef %42, ptr noundef @.str.14)
  %44 = load ptr, ptr %11, align 8, !tbaa !16
  %45 = getelementptr inbounds nuw %struct.GENERAL_SUBTREE_st, ptr %44, i32 0, i32 0
  %46 = load ptr, ptr %45, align 8, !tbaa !26
  %47 = getelementptr inbounds nuw %struct.GENERAL_NAME_st, ptr %46, i32 0, i32 0
  %48 = load i32, ptr %47, align 8, !tbaa !67
  %49 = icmp eq i32 %48, 7
  br i1 %49, label %50, label %58

50:                                               ; preds = %35
  %51 = load ptr, ptr %8, align 8, !tbaa !34
  %52 = load ptr, ptr %11, align 8, !tbaa !16
  %53 = getelementptr inbounds nuw %struct.GENERAL_SUBTREE_st, ptr %52, i32 0, i32 0
  %54 = load ptr, ptr %53, align 8, !tbaa !26
  %55 = getelementptr inbounds nuw %struct.GENERAL_NAME_st, ptr %54, i32 0, i32 1
  %56 = load ptr, ptr %55, align 8, !tbaa !24
  %57 = call i32 @print_nc_ipadd(ptr noundef %51, ptr noundef %56)
  br label %64

58:                                               ; preds = %35
  %59 = load ptr, ptr %8, align 8, !tbaa !34
  %60 = load ptr, ptr %11, align 8, !tbaa !16
  %61 = getelementptr inbounds nuw %struct.GENERAL_SUBTREE_st, ptr %60, i32 0, i32 0
  %62 = load ptr, ptr %61, align 8, !tbaa !26
  %63 = call i32 @GENERAL_NAME_print(ptr noundef %59, ptr noundef %62)
  br label %64

64:                                               ; preds = %58, %50
  br label %65

65:                                               ; preds = %64
  %66 = load i32, ptr %12, align 4, !tbaa !18
  %67 = add nsw i32 %66, 1
  store i32 %67, ptr %12, align 4, !tbaa !18
  br label %23, !llvm.loop !93

68:                                               ; preds = %23
  call void @llvm.lifetime.end.p0(i64 4, ptr %12) #6
  call void @llvm.lifetime.end.p0(i64 8, ptr %11) #6
  ret i32 1
}