; Function Attrs: nounwind uwtable
define internal fastcc void @do_i2r_name_constraints(ptr noundef %0, ptr noundef %1, i32 noundef %2, ptr noundef %3) unnamed_addr #1 {
  %5 = tail call i32 @OPENSSL_sk_num(ptr noundef %0) #9
  %6 = icmp sgt i32 %5, 0
  br i1 %6, label %7, label %9

7:                                                ; preds = %4
  %8 = tail call i32 (ptr, ptr, ...) @BIO_printf(ptr noundef %1, ptr noundef nonnull @.str.13, i32 noundef %2, ptr noundef nonnull @.str.14, ptr noundef %3) #9
  br label %9

9:                                                ; preds = %7, %4
  %10 = tail call i32 @OPENSSL_sk_num(ptr noundef %0) #9
  %11 = icmp sgt i32 %10, 0
  br i1 %11, label %.lr.ph, label %._crit_edge

.lr.ph:                                           ; preds = %9
  %12 = add nsw i32 %2, 2
  br label %13

13:                                               ; preds = %.lr.ph, %41
  %.01 = phi i32 [ 0, %.lr.ph ], [ %42, %41 ]
  %.not = icmp eq i32 %.01, 0
  br i1 %.not, label %16, label %14

14:                                               ; preds = %13
  %15 = tail call i32 @BIO_puts(ptr noundef %1, ptr noundef nonnull @.str.11) #9
  br label %16

16:                                               ; preds = %14, %13
  %17 = tail call ptr @OPENSSL_sk_value(ptr noundef %0, i32 noundef %.01) #9
  %18 = tail call i32 (ptr, ptr, ...) @BIO_printf(ptr noundef %1, ptr noundef nonnull @.str.15, i32 noundef %12, ptr noundef nonnull @.str.14) #9
  %19 = load ptr, ptr %17, align 8, !tbaa !13
  %20 = load i32, ptr %19, align 8, !tbaa !49
  %21 = icmp eq i32 %20, 7
  br i1 %21, label %22, label %39

22:                                               ; preds = %16
  %23 = getelementptr inbounds nuw i8, ptr %19, i64 8
  %24 = load ptr, ptr %23, align 8, !tbaa !11
  %25 = load i32, ptr %24, align 8, !tbaa !63
  %spec.select.i = tail call i32 @llvm.smin.i32(i32 %25, i32 4)
  %.inv.i = icmp slt i32 %25, 16
  %26 = select i1 %.inv.i, i32 %spec.select.i, i32 16
  %27 = sub nsw i32 %25, %26
  %28 = getelementptr inbounds nuw i8, ptr %24, i64 8
  %29 = load ptr, ptr %28, align 8, !tbaa !64
  %30 = tail call ptr @ossl_ipaddr_to_asc(ptr noundef %29, i32 noundef %26) #9
  %31 = load ptr, ptr %28, align 8, !tbaa !64
  %32 = sext i32 %26 to i64
  %33 = getelementptr inbounds i8, ptr %31, i64 %32
  %34 = tail call ptr @ossl_ipaddr_to_asc(ptr noundef %33, i32 noundef %27) #9
  %35 = icmp ne ptr %30, null
  %36 = icmp ne ptr %34, null
  %or.cond.i = select i1 %35, i1 %36, i1 false
  br i1 %or.cond.i, label %37, label %print_nc_ipadd.exit

37:                                               ; preds = %22
  %38 = tail call i32 (ptr, ptr, ...) @BIO_printf(ptr noundef %1, ptr noundef nonnull @.str.16, ptr noundef nonnull %30, ptr noundef nonnull %34) #9
  br label %print_nc_ipadd.exit

print_nc_ipadd.exit:                              ; preds = %22, %37
  tail call void @CRYPTO_free(ptr noundef %30, ptr noundef nonnull @.str.2, i32 noundef 246) #9
  tail call void @CRYPTO_free(ptr noundef %34, ptr noundef nonnull @.str.2, i32 noundef 247) #9
  br label %41

39:                                               ; preds = %16
  %40 = tail call i32 @GENERAL_NAME_print(ptr noundef %1, ptr noundef nonnull %19) #9
  br label %41

41:                                               ; preds = %print_nc_ipadd.exit, %39
  %42 = add nuw nsw i32 %.01, 1
  %43 = tail call i32 @OPENSSL_sk_num(ptr noundef %0) #9
  %44 = icmp slt i32 %42, %43
  br i1 %44, label %13, label %._crit_edge, !llvm.loop !65

._crit_edge:                                      ; preds = %41, %9
  ret void
}